target datalayout = "e-m:e-p270:32:32-p271:32:32-p272:64:64-i64:64-i128:128-f80:128-n8:16:32:64-S128"
target triple = "x86_64-pc-linux-gnu"

; Function Attrs: nounwind uwtable
define internal i32 @is_valid_mbc_string(ptr noundef %0, ptr noundef %1) #0 {
  %3 = alloca i32, align 4
  %4 = alloca ptr, align 8
  %5 = alloca ptr, align 8
  store ptr %0, ptr %4, align 8, !tbaa !4
  store ptr %1, ptr %5, align 8, !tbaa !4
  br label %6

6:                                                ; preds = %103, %2
  %7 = load ptr, ptr %4, align 8, !tbaa !4
  %8 = load ptr, ptr %5, align 8, !tbaa !4
  %9 = icmp ult ptr %7, %8
  br i1 %9, label %10, label %104

10:                                               ; preds = %6
  %11 = load ptr, ptr %4, align 8, !tbaa !4
  %12 = load i8, ptr %11, align 1, !tbaa !9
  %13 = zext i8 %12 to i32
  %14 = icmp slt i32 %13, 128
  br i1 %14, label %15, label %18

15:                                               ; preds = %10
  %16 = load ptr, ptr %4, align 8, !tbaa !4
  %17 = getelementptr inbounds nuw i8, ptr %16, i32 1
  store ptr %17, ptr %4, align 8, !tbaa !4
  br label %103

18:                                               ; preds = %10
  %19 = load ptr, ptr %4, align 8, !tbaa !4
  %20 = load i8, ptr %19, align 1, !tbaa !9
  %21 = zext i8 %20 to i32
  %22 = icmp slt i32 %21, 161
  br i1 %22, label %23, label %60

23:                                               ; preds = %18
  %24 = load ptr, ptr %4, align 8, !tbaa !4
  %25 = load i8, ptr %24, align 1, !tbaa !9
  %26 = zext i8 %25 to i32
  %27 = icmp eq i32 %26, 160
  br i1 %27, label %33, label %28

28:                                               ; preds = %23
  %29 = load ptr, ptr %4, align 8, !tbaa !4
  %30 = load i8, ptr %29, align 1, !tbaa !9
  %31 = zext i8 %30 to i32
  %32 = icmp eq i32 %31, 128
  br i1 %32, label %33, label %34

33:                                               ; preds = %28, %23
  store i32 0, ptr %3, align 4
  br label %105

34:                                               ; preds = %28
  %35 = load ptr, ptr %4, align 8, !tbaa !4
  %36 = getelementptr inbounds nuw i8, ptr %35, i32 1
  store ptr %36, ptr %4, align 8, !tbaa !4
  %37 = load ptr, ptr %4, align 8, !tbaa !4
  %38 = load ptr, ptr %5, align 8, !tbaa !4
  %39 = icmp uge ptr %37, %38
  br i1 %39, label %40, label %41

40:                                               ; preds = %34
  store i32 0, ptr %3, align 4
  br label %105

41:                                               ; preds = %34
  %42 = load ptr, ptr %4, align 8, !tbaa !4
  %43 = load i8, ptr %42, align 1, !tbaa !9
  %44 = zext i8 %43 to i32
  %45 = icmp slt i32 %44, 64
  br i1 %45, label %56, label %46

46:                                               ; preds = %41
  %47 = load ptr, ptr %4, align 8, !tbaa !4
  %48 = load i8, ptr %47, align 1, !tbaa !9
  %49 = zext i8 %48 to i32
  %50 = icmp sgt i32 %49, 252
  br i1 %50, label %56, label %51

51:                                               ; preds = %46
  %52 = load ptr, ptr %4, align 8, !tbaa !4
  %53 = load i8, ptr %52, align 1, !tbaa !9
  %54 = zext i8 %53 to i32
  %55 = icmp eq i32 %54, 127
  br i1 %55, label %56, label %57

56:                                               ; preds = %51, %46, %41
  store i32 0, ptr %3, align 4
  br label %105

57:                                               ; preds = %51
  %58 = load ptr, ptr %4, align 8, !tbaa !4
  %59 = getelementptr inbounds nuw i8, ptr %58, i32 1
  store ptr %59, ptr %4, align 8, !tbaa !4
  br label %102

60:                                               ; preds = %18
  %61 = load ptr, ptr %4, align 8, !tbaa !4
  %62 = load i8, ptr %61, align 1, !tbaa !9
  %63 = zext i8 %62 to i32
  %64 = icmp slt i32 %63, 224
  br i1 %64, label %65, label %68

65:                                               ; preds = %60
  %66 = load ptr, ptr %4, align 8, !tbaa !4
  %67 = getelementptr inbounds nuw i8, ptr %66, i32 1
  store ptr %67, ptr %4, align 8, !tbaa !4
  br label %101

68:                                               ; preds = %60
  %69 = load ptr, ptr %4, align 8, !tbaa !4
  %70 = load i8, ptr %69, align 1, !tbaa !9
  %71 = zext i8 %70 to i32
  %72 = icmp slt i32 %71, 253
  br i1 %72, label %73, label %99

73:                                               ; preds = %68
  %74 = load ptr, ptr %4, align 8, !tbaa !4
  %75 = getelementptr inbounds nuw i8, ptr %74, i32 1
  store ptr %75, ptr %4, align 8, !tbaa !4
  %76 = load ptr, ptr %4, align 8, !tbaa !4
  %77 = load ptr, ptr %5, align 8, !tbaa !4
  %78 = icmp uge ptr %76, %77
  br i1 %78, label %79, label %80

79:                                               ; preds = %73
  store i32 0, ptr %3, align 4
  br label %105

80:                                               ; preds = %73
  %81 = load ptr, ptr %4, align 8, !tbaa !4
  %82 = load i8, ptr %81, align 1, !tbaa !9
  %83 = zext i8 %82 to i32
  %84 = icmp slt i32 %83, 64
  br i1 %84, label %95, label %85

85:                                               ; preds = %80
  %86 = load ptr, ptr %4, align 8, !tbaa !4
  %87 = load i8, ptr %86, align 1, !tbaa !9
  %88 = zext i8 %87 to i32
  %89 = icmp sgt i32 %88, 252
  br i1 %89, label %95, label %90

90:                                               ; preds = %85
  %91 = load ptr, ptr %4, align 8, !tbaa !4
  %92 = load i8, ptr %91, align 1, !tbaa !9
  %93 = zext i8 %92 to i32
  %94 = icmp eq i32 %93, 127
  br i1 %94, label %95, label %96

95:                                               ; preds = %90, %85, %80
  store i32 0, ptr %3, align 4
  br label %105

96:                                               ; preds = %90
  %97 = load ptr, ptr %4, align 8, !tbaa !4
  %98 = getelementptr inbounds nuw i8, ptr %97, i32 1
  store ptr %98, ptr %4, align 8, !tbaa !4
  br label %100

99:                                               ; preds = %68
  store i32 0, ptr %3, align 4
  br label %105

100:                                              ; preds = %96
  br label %101

101:                                              ; preds = %100, %65
  br label %102

102:                                              ; preds = %101, %57
  br label %103

103:                                              ; preds = %102, %15
  br label %6, !llvm.loop !32

104:                                              ; preds = %6
  store i32 1, ptr %3, align 4
  br label %105

105:                                              ; preds = %104, %99, %95, %79, %56, %40, %33
  %106 = load i32, ptr %3, align 4
  ret i32 %106
}