; Function Attrs: nofree norecurse nosync nounwind memory(argmem: read) uwtable
define internal range(i32 0, 2) i32 @is_valid_mbc_string(ptr noundef readonly captures(address) %0, ptr noundef readnone captures(address) %1) #5 {
  %3 = icmp ult ptr %0, %1
  br i1 %3, label %.lr.ph, label %switch.early.test35._crit_edge

.lr.ph:                                           ; preds = %2, %23
  %.02437 = phi ptr [ %24, %23 ], [ %0, %2 ]
  %4 = load i8, ptr %.02437, align 1, !tbaa !4
  %5 = icmp sgt i8 %4, -1
  br i1 %5, label %23, label %6

6:                                                ; preds = %.lr.ph
  %7 = icmp samesign ult i8 %4, -95
  br i1 %7, label %8, label %14

8:                                                ; preds = %6
  switch i8 %4, label %9 [
    i8 -96, label %switch.early.test35._crit_edge
    i8 -128, label %switch.early.test35._crit_edge
  ]

9:                                                ; preds = %8
  %10 = getelementptr inbounds nuw i8, ptr %.02437, i64 1
  %.not31 = icmp ult ptr %10, %1
  br i1 %.not31, label %11, label %switch.early.test35._crit_edge

11:                                               ; preds = %9
  %12 = load i8, ptr %10, align 1, !tbaa !4
  %.fr36 = freeze i8 %12
  %13 = icmp ult i8 %.fr36, 64
  br i1 %13, label %switch.early.test35._crit_edge, label %switch.early.test

switch.early.test:                                ; preds = %11
  switch i8 %.fr36, label %23 [
    i8 -1, label %switch.early.test35._crit_edge
    i8 -2, label %switch.early.test35._crit_edge
    i8 -3, label %switch.early.test35._crit_edge
    i8 127, label %switch.early.test35._crit_edge
  ]

14:                                               ; preds = %6
  %15 = icmp samesign ult i8 %4, -32
  br i1 %15, label %23, label %16

16:                                               ; preds = %14
  %17 = icmp samesign ult i8 %4, -3
  br i1 %17, label %18, label %switch.early.test35._crit_edge

18:                                               ; preds = %16
  %19 = getelementptr inbounds nuw i8, ptr %.02437, i64 1
  %.not = icmp ult ptr %19, %1
  br i1 %.not, label %20, label %switch.early.test35._crit_edge

20:                                               ; preds = %18
  %21 = load i8, ptr %19, align 1, !tbaa !4
  %.fr = freeze i8 %21
  %22 = icmp ult i8 %.fr, 64
  br i1 %22, label %switch.early.test35._crit_edge, label %switch.early.test35

switch.early.test35:                              ; preds = %20
  switch i8 %.fr, label %23 [
    i8 -1, label %switch.early.test35._crit_edge
    i8 -2, label %switch.early.test35._crit_edge
    i8 -3, label %switch.early.test35._crit_edge
    i8 127, label %switch.early.test35._crit_edge
  ]

23:                                               ; preds = %switch.early.test35, %14, %switch.early.test, %.lr.ph
  %.sink = phi i64 [ 1, %.lr.ph ], [ 2, %switch.early.test ], [ 1, %14 ], [ 2, %switch.early.test35 ]
  %24 = getelementptr inbounds nuw i8, ptr %.02437, i64 %.sink
  %25 = icmp ult ptr %24, %1
  br i1 %25, label %.lr.ph, label %switch.early.test35._crit_edge, !llvm.loop !24

switch.early.test35._crit_edge:                   ; preds = %8, %8, %9, %18, %16, %23, %11, %switch.early.test, %switch.early.test, %switch.early.test, %switch.early.test, %20, %switch.early.test35, %switch.early.test35, %switch.early.test35, %switch.early.test35, %2
  %.0 = phi i32 [ 1, %2 ], [ 0, %switch.early.test35 ], [ 0, %switch.early.test35 ], [ 0, %switch.early.test35 ], [ 0, %switch.early.test35 ], [ 0, %20 ], [ 0, %switch.early.test ], [ 0, %switch.early.test ], [ 0, %switch.early.test ], [ 0, %switch.early.test ], [ 0, %11 ], [ 1, %23 ], [ 0, %16 ], [ 0, %18 ], [ 0, %9 ], [ 0, %8 ], [ 0, %8 ]
  ret i32 %.0
}